; Function Attrs: mustprogress uwtable
define noundef nonnull align 8 dereferenceable(80) ptr @_ZNK10open_spiel5tarok10TarokState12ActionToCardEl(ptr noundef nonnull readonly align 8 captures(none) dereferenceable(280) %0, i64 noundef %1) local_unnamed_addr #5 align 2 {
  %3 = icmp ult i64 %1, 54
  br i1 %3, label %_ZNKSt5arrayIN10open_spiel5tarok4CardELm54EE2atEm.exit, label %4

4:                                                ; preds = %2
  tail call void (ptr, ...) @_ZSt24__throw_out_of_range_fmtPKcz(ptr noundef nonnull @.str.48, i64 noundef %1, i64 noundef 54) #31
  unreachable

_ZNKSt5arrayIN10open_spiel5tarok4CardELm54EE2atEm.exit: ; preds = %2
  %5 = getelementptr inbounds nuw [54 x %"struct.open_spiel::tarok::Card"], ptr @_ZN10open_spiel5tarok9TarokGame10card_deck_E, i64 0, i64 %1
  ret ptr %5
}